; Function Attrs: nounwind sspstrong uwtable
define internal range(i64 5, 4) i64 @ancillary_timestamp(i64 noundef %0) #0 {
  %2 = alloca i64, align 8
  %.pr.i.i = load i64, ptr @ancillary_level.rbimpl_id, align 8, !tbaa !6
  %.not4.i.i = icmp eq i64 %.pr.i.i, 0
  br i1 %.not4.i.i, label %.lr.ph.i.i, label %rbimpl_intern_const.exit.i

.lr.ph.i.i:                                       ; preds = %1, %.lr.ph.i.i
  %3 = tail call i64 @rb_intern2(ptr noundef nonnull @.str.4, i64 noundef 5) #10
  store i64 %3, ptr @ancillary_level.rbimpl_id, align 8, !tbaa !6
  %.not.i.i = icmp eq i64 %3, 0
  br i1 %.not.i.i, label %.lr.ph.i.i, label %rbimpl_intern_const.exit.i, !llvm.loop !17

rbimpl_intern_const.exit.i:                       ; preds = %.lr.ph.i.i, %1
  %.lcssa.i.i = phi i64 [ %.pr.i.i, %1 ], [ %3, %.lr.ph.i.i ]
  %4 = tail call i64 @rb_attr_get(i64 noundef %0, i64 noundef %.lcssa.i.i) #10
  %5 = and i64 %4, 1
  %.not.i3.i = icmp eq i64 %5, 0
  br i1 %.not.i3.i, label %8, label %6

6:                                                ; preds = %rbimpl_intern_const.exit.i
  %7 = tail call i64 @rb_fix2int(i64 noundef %4) #10
  br label %ancillary_level.exit

8:                                                ; preds = %rbimpl_intern_const.exit.i
  %9 = tail call i64 @rb_num2int(i64 noundef %4) #10
  br label %ancillary_level.exit

ancillary_level.exit:                             ; preds = %6, %8
  %.0.i.i = phi i64 [ %7, %6 ], [ %9, %8 ]
  %.pr.i.i16 = load i64, ptr @ancillary_type.rbimpl_id, align 8, !tbaa !6
  %.not4.i.i17 = icmp eq i64 %.pr.i.i16, 0
  br i1 %.not4.i.i17, label %.lr.ph.i.i22, label %rbimpl_intern_const.exit.i18

.lr.ph.i.i22:                                     ; preds = %ancillary_level.exit, %.lr.ph.i.i22
  %10 = tail call i64 @rb_intern2(ptr noundef nonnull @.str.5, i64 noundef 4) #10
  store i64 %10, ptr @ancillary_type.rbimpl_id, align 8, !tbaa !6
  %.not.i.i23 = icmp eq i64 %10, 0
  br i1 %.not.i.i23, label %.lr.ph.i.i22, label %rbimpl_intern_const.exit.i18, !llvm.loop !17

rbimpl_intern_const.exit.i18:                     ; preds = %.lr.ph.i.i22, %ancillary_level.exit
  %.lcssa.i.i19 = phi i64 [ %.pr.i.i16, %ancillary_level.exit ], [ %10, %.lr.ph.i.i22 ]
  %11 = tail call i64 @rb_attr_get(i64 noundef %0, i64 noundef %.lcssa.i.i19) #10
  %12 = and i64 %11, 1
  %.not.i3.i20 = icmp eq i64 %12, 0
  br i1 %.not.i3.i20, label %15, label %13

13:                                               ; preds = %rbimpl_intern_const.exit.i18
  %14 = tail call i64 @rb_fix2int(i64 noundef %11) #10
  br label %ancillary_type.exit

15:                                               ; preds = %rbimpl_intern_const.exit.i18
  %16 = tail call i64 @rb_num2int(i64 noundef %11) #10
  br label %ancillary_type.exit

ancillary_type.exit:                              ; preds = %13, %15
  %.0.i.i21 = phi i64 [ %14, %13 ], [ %16, %15 ]
  %17 = trunc i64 %.0.i.i21 to i32
  call void @llvm.lifetime.start.p0(i64 8, ptr nonnull %2) #10
  %.pr.i.i24 = load i64, ptr @ancillary_data.rbimpl_id, align 8, !tbaa !6
  %.not4.i.i25 = icmp eq i64 %.pr.i.i24, 0
  br i1 %.not4.i.i25, label %.lr.ph.i.i28, label %ancillary_data.exit

.lr.ph.i.i28:                                     ; preds = %ancillary_type.exit, %.lr.ph.i.i28
  %18 = tail call i64 @rb_intern2(ptr noundef nonnull @.str.6, i64 noundef 4) #10
  store i64 %18, ptr @ancillary_data.rbimpl_id, align 8, !tbaa !6
  %.not.i.i29 = icmp eq i64 %18, 0
  br i1 %.not.i.i29, label %.lr.ph.i.i28, label %ancillary_data.exit, !llvm.loop !17

ancillary_data.exit:                              ; preds = %.lr.ph.i.i28, %ancillary_type.exit
  %.lcssa.i.i27 = phi i64 [ %.pr.i.i24, %ancillary_type.exit ], [ %18, %.lr.ph.i.i28 ]
  %19 = tail call i64 @rb_attr_get(i64 noundef %0, i64 noundef %.lcssa.i.i27) #10
  store i64 %19, ptr %2, align 8, !tbaa !6
  %20 = call i64 @rb_string_value(ptr noundef nonnull %2) #10
  %21 = load i64, ptr %2, align 8, !tbaa !6
  call void @llvm.lifetime.end.p0(i64 8, ptr nonnull %2) #10
  %22 = and i64 %.0.i.i, 4294967295
  %23 = icmp eq i64 %22, 1
  %24 = icmp eq i32 %17, 29
  %or.cond = select i1 %23, i1 %24, i1 false
  br i1 %or.cond, label %25, label %36

25:                                               ; preds = %ancillary_data.exit
  %26 = inttoptr i64 %21 to ptr
  %27 = getelementptr inbounds nuw i8, ptr %26, i64 16
  %28 = load i64, ptr %27, align 8, !tbaa !19
  %29 = icmp eq i64 %28, 16
  br i1 %29, label %30, label %.thread38

30:                                               ; preds = %25
  %31 = load i64, ptr %26, align 8, !tbaa !15, !noalias !116
  %32 = and i64 %31, 8192
  %.not.i.i30 = icmp eq i64 %32, 0
  %33 = getelementptr inbounds nuw i8, ptr %26, i64 24
  br i1 %.not.i.i30, label %RSTRING_PTR.exit, label %34

34:                                               ; preds = %30
  %.sroa.2.0.copyload.i = load ptr, ptr %33, align 8
  br label %RSTRING_PTR.exit

RSTRING_PTR.exit:                                 ; preds = %30, %34
  %.sroa.2.0.i = phi ptr [ %.sroa.2.0.copyload.i, %34 ], [ %33, %30 ]
  %.sroa.045.0.copyload = load i64, ptr %.sroa.2.0.i, align 1
  %.sroa.446.0..sroa.2.0.i.sroa_idx = getelementptr inbounds nuw i8, ptr %.sroa.2.0.i, i64 8
  %.sroa.446.0.copyload = load i64, ptr %.sroa.446.0..sroa.2.0.i.sroa_idx, align 1
  %35 = call i64 @rb_time_new(i64 noundef %.sroa.045.0.copyload, i64 noundef %.sroa.446.0.copyload) #10
  br label %.thread

36:                                               ; preds = %ancillary_data.exit
  %37 = icmp eq i32 %17, 35
  %or.cond3 = select i1 %23, i1 %37, i1 false
  br i1 %or.cond3, label %38, label %.thread38

38:                                               ; preds = %36
  %39 = inttoptr i64 %21 to ptr
  %40 = getelementptr inbounds nuw i8, ptr %39, i64 16
  %41 = load i64, ptr %40, align 8, !tbaa !19
  %42 = icmp eq i64 %41, 16
  br i1 %42, label %43, label %.thread38

43:                                               ; preds = %38
  %44 = load i64, ptr %39, align 8, !tbaa !15, !noalias !119
  %45 = and i64 %44, 8192
  %.not.i.i31 = icmp eq i64 %45, 0
  %46 = getelementptr inbounds nuw i8, ptr %39, i64 24
  br i1 %.not.i.i31, label %RSTRING_PTR.exit34, label %47

47:                                               ; preds = %43
  %.sroa.2.0.copyload.i32 = load ptr, ptr %46, align 8
  br label %RSTRING_PTR.exit34

RSTRING_PTR.exit34:                               ; preds = %43, %47
  %.sroa.2.0.i33 = phi ptr [ %.sroa.2.0.copyload.i32, %47 ], [ %46, %43 ]
  %.sroa.0.0.copyload = load i64, ptr %.sroa.2.0.i33, align 1
  %.sroa.4.0..sroa.2.0.i33.sroa_idx = getelementptr inbounds nuw i8, ptr %.sroa.2.0.i33, i64 8
  %.sroa.4.0.copyload = load i64, ptr %.sroa.4.0..sroa.2.0.i33.sroa_idx, align 1
  %48 = call i64 @rb_time_nano_new(i64 noundef %.sroa.0.0.copyload, i64 noundef %.sroa.4.0.copyload) #10
  br label %.thread

.thread:                                          ; preds = %RSTRING_PTR.exit, %RSTRING_PTR.exit34
  %.1 = phi i64 [ %48, %RSTRING_PTR.exit34 ], [ %35, %RSTRING_PTR.exit ]
  %49 = icmp eq i64 %.1, 4
  br i1 %49, label %.thread38, label %51

.thread38:                                        ; preds = %25, %36, %38, %.thread
  %50 = load i64, ptr @rb_eTypeError, align 8, !tbaa !6
  call void (i64, ptr, ...) @rb_raise(i64 noundef %50, ptr noundef nonnull @.str.57) #12
  unreachable

51:                                               ; preds = %.thread
  ret i64 %.1
}